; ModuleID = 'source-C-CXX/26/2185.c'
source_filename = "source-C-CXX/26/2185.c"
target datalayout = "e-m:e-p270:32:32-p271:32:32-p272:64:64-i64:64-f80:128-n8:16:32:64-S128"
target triple = "x86_64-pc-linux-gnu"

%struct._IO_FILE = type { i32, i8*, i8*, i8*, i8*, i8*, i8*, i8*, i8*, i8*, i8*, i8*, %struct._IO_marker*, %struct._IO_FILE*, i32, i32, i64, i16, i8, [1 x i8], i8*, i64, %struct._IO_codecvt*, %struct._IO_wide_data*, %struct._IO_FILE*, i8*, i64, i32, [20 x i8] }
%struct._IO_marker = type opaque
%struct._IO_codecvt = type opaque
%struct._IO_wide_data = type opaque

@.str = private unnamed_addr constant [3 x i8] c"%d\00", align 1
@.str.1 = private unnamed_addr constant [9 x i8] c"%f %f %f\00", align 1
@.str.2 = private unnamed_addr constant [17 x i8] c"x1=%.5f;x2=%.5f\0A\00", align 1
@.str.3 = private unnamed_addr constant [12 x i8] c"x1=x2=%.5f\0A\00", align 1
@.str.4 = private unnamed_addr constant [29 x i8] c"x1=%.5f+%.5fi;x2=%.5f-%.5fi\0A\00", align 1
@stdin = external local_unnamed_addr global %struct._IO_FILE*, align 8

; Function Attrs: nofree nounwind sspstrong uwtable
define dso_local i32 @main() local_unnamed_addr #0 {
  %1 = alloca i32, align 4
  %2 = bitcast i32* %1 to i8*
  call void @llvm.lifetime.start.p0i8(i64 4, i8* nonnull %2) #5
  %3 = call i32 (i8*, ...) @__isoc99_scanf(i8* getelementptr inbounds ([3 x i8], [3 x i8]* @.str, i64 0, i64 0), i32* nonnull %1)
  %4 = load i32, i32* %1, align 4, !tbaa !5
  %5 = zext i32 %4 to i64
  %6 = call i8* @llvm.stacksave()
  %7 = alloca float, i64 %5, align 16
  %8 = load i32, i32* %1, align 4, !tbaa !5
  %9 = zext i32 %8 to i64
  %10 = alloca float, i64 %9, align 16
  %11 = alloca float, i64 %9, align 16
  %12 = icmp sgt i32 %8, 0
  br i1 %12, label %15, label %95

13:                                               ; preds = %15
  %14 = icmp sgt i32 %22, 0
  br i1 %14, label %25, label %95

15:                                               ; preds = %0, %15
  %16 = phi i64 [ %21, %15 ], [ 0, %0 ]
  %17 = getelementptr inbounds float, float* %7, i64 %16
  %18 = getelementptr inbounds float, float* %10, i64 %16
  %19 = getelementptr inbounds float, float* %11, i64 %16
  %20 = call i32 (i8*, ...) @__isoc99_scanf(i8* getelementptr inbounds ([9 x i8], [9 x i8]* @.str.1, i64 0, i64 0), float* nonnull %17, float* nonnull %18, float* nonnull %19)
  %21 = add nuw nsw i64 %16, 1
  %22 = load i32, i32* %1, align 4, !tbaa !5
  %23 = sext i32 %22 to i64
  %24 = icmp slt i64 %21, %23
  br i1 %24, label %15, label %13, !llvm.loop !9

25:                                               ; preds = %13, %90
  %26 = phi i64 [ %91, %90 ], [ 0, %13 ]
  %27 = getelementptr inbounds float, float* %10, i64 %26
  %28 = load float, float* %27, align 4, !tbaa !11
  %29 = fmul float %28, %28
  %30 = getelementptr inbounds float, float* %7, i64 %26
  %31 = load float, float* %30, align 4, !tbaa !11
  %32 = fmul float %31, 4.000000e+00
  %33 = getelementptr inbounds float, float* %11, i64 %26
  %34 = load float, float* %33, align 4, !tbaa !11
  %35 = fmul float %32, %34
  %36 = fsub float %29, %35
  %37 = fpext float %36 to double
  %38 = fcmp ogt float %36, 0.000000e+00
  br i1 %38, label %39, label %58

39:                                               ; preds = %25
  %40 = fneg float %28
  %41 = fpext float %40 to double
  %42 = call double @sqrt(double %37) #5
  %43 = fadd double %42, %41
  %44 = load float, float* %30, align 4, !tbaa !11
  %45 = fmul float %44, 2.000000e+00
  %46 = fpext float %45 to double
  %47 = fdiv double %43, %46
  %48 = load float, float* %27, align 4, !tbaa !11
  %49 = fneg float %48
  %50 = fpext float %49 to double
  %51 = call double @sqrt(double %37) #5
  %52 = fsub double %50, %51
  %53 = load float, float* %30, align 4, !tbaa !11
  %54 = fmul float %53, 2.000000e+00
  %55 = fpext float %54 to double
  %56 = fdiv double %52, %55
  %57 = call i32 (i8*, ...) @printf(i8* nonnull dereferenceable(1) getelementptr inbounds ([17 x i8], [17 x i8]* @.str.2, i64 0, i64 0), double %47, double %56)
  br label %58

58:                                               ; preds = %39, %25
  %59 = fcmp oeq float %36, 0.000000e+00
  br i1 %59, label %60, label %68

60:                                               ; preds = %58
  %61 = load float, float* %27, align 4, !tbaa !11
  %62 = fneg float %61
  %63 = load float, float* %30, align 4, !tbaa !11
  %64 = fmul float %63, 2.000000e+00
  %65 = fdiv float %62, %64
  %66 = fpext float %65 to double
  %67 = call i32 (i8*, ...) @printf(i8* nonnull dereferenceable(1) getelementptr inbounds ([12 x i8], [12 x i8]* @.str.3, i64 0, i64 0), double %66)
  br label %68

68:                                               ; preds = %60, %58
  %69 = fcmp olt float %36, 0.000000e+00
  br i1 %69, label %70, label %90

70:                                               ; preds = %68
  %71 = load float, float* %27, align 4, !tbaa !11
  %72 = fneg float %71
  %73 = load float, float* %30, align 4, !tbaa !11
  %74 = fmul float %73, 2.000000e+00
  %75 = fdiv float %72, %74
  %76 = fpext float %75 to double
  %77 = fneg double %37
  %78 = call double @sqrt(double %77) #5
  %79 = load float, float* %30, align 4, !tbaa !11
  %80 = fmul float %79, 2.000000e+00
  %81 = fpext float %80 to double
  %82 = fdiv double %78, %81
  %83 = load float, float* %27, align 4, !tbaa !11
  %84 = fcmp oeq float %83, 0.000000e+00
  br i1 %84, label %85, label %88

85:                                               ; preds = %70
  %86 = fneg double %76
  %87 = call i32 (i8*, ...) @printf(i8* nonnull dereferenceable(1) getelementptr inbounds ([29 x i8], [29 x i8]* @.str.4, i64 0, i64 0), double %86, double %82, double %86, double %82)
  br label %90

88:                                               ; preds = %70
  %89 = call i32 (i8*, ...) @printf(i8* nonnull dereferenceable(1) getelementptr inbounds ([29 x i8], [29 x i8]* @.str.4, i64 0, i64 0), double %76, double %82, double %76, double %82)
  br label %90

90:                                               ; preds = %85, %88, %68
  %91 = add nuw nsw i64 %26, 1
  %92 = load i32, i32* %1, align 4, !tbaa !5
  %93 = sext i32 %92 to i64
  %94 = icmp slt i64 %91, %93
  br i1 %94, label %25, label %95, !llvm.loop !13

95:                                               ; preds = %90, %0, %13
  %96 = load %struct._IO_FILE*, %struct._IO_FILE** @stdin, align 8, !tbaa !14
  %97 = call i32 @getc(%struct._IO_FILE* %96) #5
  %98 = load %struct._IO_FILE*, %struct._IO_FILE** @stdin, align 8, !tbaa !14
  %99 = call i32 @getc(%struct._IO_FILE* %98) #5
  %100 = load %struct._IO_FILE*, %struct._IO_FILE** @stdin, align 8, !tbaa !14
  %101 = call i32 @getc(%struct._IO_FILE* %100) #5
  %102 = load %struct._IO_FILE*, %struct._IO_FILE** @stdin, align 8, !tbaa !14
  %103 = call i32 @getc(%struct._IO_FILE* %102) #5
  call void @llvm.stackrestore(i8* %6)
  call void @llvm.lifetime.end.p0i8(i64 4, i8* nonnull %2) #5
  ret i32 0
}

; Function Attrs: argmemonly mustprogress nofree nosync nounwind willreturn
declare void @llvm.lifetime.start.p0i8(i64 immarg, i8* nocapture) #1

; Function Attrs: nofree nounwind
declare noundef i32 @__isoc99_scanf(i8* nocapture noundef readonly, ...) local_unnamed_addr #2

; Function Attrs: mustprogress nofree nosync nounwind willreturn
declare i8* @llvm.stacksave() #3

; Function Attrs: mustprogress nofree nounwind willreturn
declare double @sqrt(double) local_unnamed_addr #4

; Function Attrs: nofree nounwind
declare noundef i32 @printf(i8* nocapture noundef readonly, ...) local_unnamed_addr #2

; Function Attrs: argmemonly mustprogress nofree nosync nounwind willreturn
declare void @llvm.lifetime.end.p0i8(i64 immarg, i8* nocapture) #1

; Function Attrs: mustprogress nofree nosync nounwind willreturn
declare void @llvm.stackrestore(i8*) #3

; Function Attrs: nofree nounwind
declare noundef i32 @getc(%struct._IO_FILE* nocapture noundef) local_unnamed_addr #2


!llvm.module.flags = !{!0, !1, !2, !3}
!llvm.ident = !{!4}

!0 = !{i32 1, !"wchar_size", i32 4}
!1 = !{i32 7, !"PIC Level", i32 2}
!2 = !{i32 7, !"PIE Level", i32 2}
!3 = !{i32 7, !"uwtable", i32 1}
!4 = !{!"clang version 13.0.0"}
!5 = !{!6, !6, i64 0}
!6 = !{!"int", !7, i64 0}
!7 = !{!"omnipotent char", !8, i64 0}
!8 = !{!"Simple C/C++ TBAA"}
!9 = distinct !{!9, !10}
!10 = !{!"llvm.loop.mustprogress"}
!11 = !{!12, !12, i64 0}
!12 = !{!"float", !7, i64 0}
!13 = distinct !{!13, !10}
!14 = !{!15, !15, i64 0}
!15 = !{!"any pointer", !7, i64 0}
